; ModuleID = '24/1856.c'
source_filename = "24/1856.c"
target datalayout = "e-m:e-p270:32:32-p271:32:32-p272:64:64-i64:64-f80:128-n8:16:32:64-S128"
target triple = "x86_64-pc-linux-gnu"

@s = common dso_local global [10000 x i8] zeroinitializer, align 16
@.str = private unnamed_addr constant [3 x i8] c"%c\00", align 1
@.str.1 = private unnamed_addr constant [2 x i8] c"\0A\00", align 1

; Function Attrs: noinline nounwind uwtable
define dso_local i32 @main() #0 {
  %1 = alloca i32, align 4
  %2 = alloca [200 x i32], align 16
  %3 = alloca [200 x i32], align 16
  %4 = alloca i32, align 4
  %5 = alloca i32, align 4
  %6 = alloca i32, align 4
  %7 = alloca i32, align 4
  %8 = alloca i32, align 4
  %9 = alloca i32, align 4
  %10 = alloca i32, align 4
  %11 = alloca i32, align 4
  store i32 0, i32* %1, align 4
  %12 = call i32 (i8*, ...) bitcast (i32 (...)* @gets to i32 (i8*, ...)*)(i8* getelementptr inbounds ([10000 x i8], [10000 x i8]* @s, i64 0, i64 0))
  %13 = bitcast [200 x i32]* %2 to i8*
  call void @llvm.memset.p0i8.i64(i8* align 16 %13, i8 0, i64 800, i1 false)
  store i32 0, i32* %4, align 4
  store i32 0, i32* %5, align 4
  br label %14

14:                                               ; preds = %41, %0
  %15 = load i32, i32* %4, align 4
  %16 = sext i32 %15 to i64
  %17 = getelementptr inbounds [10000 x i8], [10000 x i8]* @s, i64 0, i64 %16
  %18 = load i8, i8* %17, align 1
  %19 = sext i8 %18 to i32
  %20 = icmp ne i32 %19, 0
  br i1 %20, label %21, label %44

21:                                               ; preds = %14
  %22 = load i32, i32* %4, align 4
  %23 = sext i32 %22 to i64
  %24 = getelementptr inbounds [10000 x i8], [10000 x i8]* @s, i64 0, i64 %23
  %25 = load i8, i8* %24, align 1
  %26 = sext i8 %25 to i32
  %27 = icmp ne i32 %26, 32
  br i1 %27, label %28, label %34

28:                                               ; preds = %21
  %29 = load i32, i32* %5, align 4
  %30 = sext i32 %29 to i64
  %31 = getelementptr inbounds [200 x i32], [200 x i32]* %2, i64 0, i64 %30
  %32 = load i32, i32* %31, align 4
  %33 = add nsw i32 %32, 1
  store i32 %33, i32* %31, align 4
  br label %41

34:                                               ; preds = %21
  %35 = load i32, i32* %4, align 4
  %36 = load i32, i32* %5, align 4
  %37 = sext i32 %36 to i64
  %38 = getelementptr inbounds [200 x i32], [200 x i32]* %3, i64 0, i64 %37
  store i32 %35, i32* %38, align 4
  %39 = load i32, i32* %5, align 4
  %40 = add nsw i32 %39, 1
  store i32 %40, i32* %5, align 4
  br label %41

41:                                               ; preds = %34, %28
  %42 = load i32, i32* %4, align 4
  %43 = add nsw i32 %42, 1
  store i32 %43, i32* %4, align 4
  br label %14

44:                                               ; preds = %14
  %45 = load i32, i32* %4, align 4
  %46 = load i32, i32* %5, align 4
  %47 = sext i32 %46 to i64
  %48 = getelementptr inbounds [200 x i32], [200 x i32]* %3, i64 0, i64 %47
  store i32 %45, i32* %48, align 4
  %49 = getelementptr inbounds [200 x i32], [200 x i32]* %2, i64 0, i64 0
  %50 = load i32, i32* %49, align 16
  store i32 %50, i32* %6, align 4
  %51 = getelementptr inbounds [200 x i32], [200 x i32]* %2, i64 0, i64 0
  %52 = load i32, i32* %51, align 16
  store i32 %52, i32* %7, align 4
  %53 = getelementptr inbounds [200 x i32], [200 x i32]* %3, i64 0, i64 0
  %54 = load i32, i32* %53, align 16
  store i32 %54, i32* %8, align 4
  %55 = getelementptr inbounds [200 x i32], [200 x i32]* %3, i64 0, i64 0
  %56 = load i32, i32* %55, align 16
  store i32 %56, i32* %9, align 4
  store i32 0, i32* %10, align 4
  store i32 0, i32* %11, align 4
  store i32 0, i32* %4, align 4
  br label %57

57:                                               ; preds = %98, %44
  %58 = load i32, i32* %4, align 4
  %59 = sext i32 %58 to i64
  %60 = getelementptr inbounds [200 x i32], [200 x i32]* %2, i64 0, i64 %59
  %61 = load i32, i32* %60, align 4
  %62 = icmp ne i32 %61, 0
  br i1 %62, label %63, label %101

63:                                               ; preds = %57
  %64 = load i32, i32* %6, align 4
  %65 = load i32, i32* %4, align 4
  %66 = sext i32 %65 to i64
  %67 = getelementptr inbounds [200 x i32], [200 x i32]* %2, i64 0, i64 %66
  %68 = load i32, i32* %67, align 4
  %69 = icmp slt i32 %64, %68
  br i1 %69, label %70, label %80

70:                                               ; preds = %63
  %71 = load i32, i32* %4, align 4
  %72 = sext i32 %71 to i64
  %73 = getelementptr inbounds [200 x i32], [200 x i32]* %2, i64 0, i64 %72
  %74 = load i32, i32* %73, align 4
  store i32 %74, i32* %6, align 4
  %75 = load i32, i32* %4, align 4
  %76 = sext i32 %75 to i64
  %77 = getelementptr inbounds [200 x i32], [200 x i32]* %3, i64 0, i64 %76
  %78 = load i32, i32* %77, align 4
  store i32 %78, i32* %8, align 4
  %79 = load i32, i32* %4, align 4
  store i32 %79, i32* %10, align 4
  br label %80

80:                                               ; preds = %70, %63
  %81 = load i32, i32* %7, align 4
  %82 = load i32, i32* %4, align 4
  %83 = sext i32 %82 to i64
  %84 = getelementptr inbounds [200 x i32], [200 x i32]* %2, i64 0, i64 %83
  %85 = load i32, i32* %84, align 4
  %86 = icmp sgt i32 %81, %85
  br i1 %86, label %87, label %97

87:                                               ; preds = %80
  %88 = load i32, i32* %4, align 4
  %89 = sext i32 %88 to i64
  %90 = getelementptr inbounds [200 x i32], [200 x i32]* %2, i64 0, i64 %89
  %91 = load i32, i32* %90, align 4
  store i32 %91, i32* %7, align 4
  %92 = load i32, i32* %4, align 4
  %93 = sext i32 %92 to i64
  %94 = getelementptr inbounds [200 x i32], [200 x i32]* %3, i64 0, i64 %93
  %95 = load i32, i32* %94, align 4
  store i32 %95, i32* %9, align 4
  %96 = load i32, i32* %4, align 4
  store i32 %96, i32* %11, align 4
  br label %97

97:                                               ; preds = %87, %80
  br label %98

98:                                               ; preds = %97
  %99 = load i32, i32* %4, align 4
  %100 = add nsw i32 %99, 1
  store i32 %100, i32* %4, align 4
  br label %57

101:                                              ; preds = %57
  %102 = load i32, i32* %8, align 4
  %103 = load i32, i32* %10, align 4
  %104 = sext i32 %103 to i64
  %105 = getelementptr inbounds [200 x i32], [200 x i32]* %2, i64 0, i64 %104
  %106 = load i32, i32* %105, align 4
  %107 = sub nsw i32 %102, %106
  store i32 %107, i32* %4, align 4
  br label %108

108:                                              ; preds = %122, %101
  %109 = load i32, i32* %4, align 4
  %110 = load i32, i32* %10, align 4
  %111 = sext i32 %110 to i64
  %112 = getelementptr inbounds [200 x i32], [200 x i32]* %3, i64 0, i64 %111
  %113 = load i32, i32* %112, align 4
  %114 = icmp slt i32 %109, %113
  br i1 %114, label %115, label %125

115:                                              ; preds = %108
  %116 = load i32, i32* %4, align 4
  %117 = sext i32 %116 to i64
  %118 = getelementptr inbounds [10000 x i8], [10000 x i8]* @s, i64 0, i64 %117
  %119 = load i8, i8* %118, align 1
  %120 = sext i8 %119 to i32
  %121 = call i32 (i8*, ...) @printf(i8* getelementptr inbounds ([3 x i8], [3 x i8]* @.str, i64 0, i64 0), i32 %120)
  br label %122

122:                                              ; preds = %115
  %123 = load i32, i32* %4, align 4
  %124 = add nsw i32 %123, 1
  store i32 %124, i32* %4, align 4
  br label %108

125:                                              ; preds = %108
  %126 = call i32 (i8*, ...) @printf(i8* getelementptr inbounds ([2 x i8], [2 x i8]* @.str.1, i64 0, i64 0))
  %127 = load i32, i32* %9, align 4
  %128 = load i32, i32* %11, align 4
  %129 = sext i32 %128 to i64
  %130 = getelementptr inbounds [200 x i32], [200 x i32]* %2, i64 0, i64 %129
  %131 = load i32, i32* %130, align 4
  %132 = sub nsw i32 %127, %131
  store i32 %132, i32* %4, align 4
  br label %133

133:                                              ; preds = %147, %125
  %134 = load i32, i32* %4, align 4
  %135 = load i32, i32* %11, align 4
  %136 = sext i32 %135 to i64
  %137 = getelementptr inbounds [200 x i32], [200 x i32]* %3, i64 0, i64 %136
  %138 = load i32, i32* %137, align 4
  %139 = icmp slt i32 %134, %138
  br i1 %139, label %140, label %150

140:                                              ; preds = %133
  %141 = load i32, i32* %4, align 4
  %142 = sext i32 %141 to i64
  %143 = getelementptr inbounds [10000 x i8], [10000 x i8]* @s, i64 0, i64 %142
  %144 = load i8, i8* %143, align 1
  %145 = sext i8 %144 to i32
  %146 = call i32 (i8*, ...) @printf(i8* getelementptr inbounds ([3 x i8], [3 x i8]* @.str, i64 0, i64 0), i32 %145)
  br label %147

147:                                              ; preds = %140
  %148 = load i32, i32* %4, align 4
  %149 = add nsw i32 %148, 1
  store i32 %149, i32* %4, align 4
  br label %133

150:                                              ; preds = %133
  ret i32 0
}

declare dso_local i32 @gets(...) #1

; Function Attrs: argmemonly nounwind willreturn
declare void @llvm.memset.p0i8.i64(i8* nocapture writeonly, i8, i64, i1 immarg) #2

declare dso_local i32 @printf(i8*, ...) #1


!llvm.module.flags = !{!0}
!llvm.ident = !{!1}

!0 = !{i32 1, !"wchar_size", i32 4}
!1 = !{!"clang version 10.0.0-4ubuntu1 "}
